; Function Attrs: nounwind uwtable
define internal fastcc void @Vec_IntFill(ptr noundef captures(none) %0, i32 noundef %1, i32 noundef %2) unnamed_addr #0 {
  %4 = load i32, ptr %0, align 8
  %.not.i = icmp slt i32 %4, %1
  br i1 %.not.i, label %5, label %Vec_IntGrow.exit

5:                                                ; preds = %3
  %6 = getelementptr inbounds nuw i8, ptr %0, i64 8
  %7 = load ptr, ptr %6, align 8
  %.not9.i = icmp eq ptr %7, null
  %8 = sext i32 %1 to i64
  %9 = shl nsw i64 %8, 2
  br i1 %.not9.i, label %12, label %10

10:                                               ; preds = %5
  %11 = tail call ptr @realloc(ptr noundef nonnull %7, i64 noundef %9) #18
  br label %14

12:                                               ; preds = %5
  %13 = tail call noalias ptr @malloc(i64 noundef %9) #19
  br label %14

14:                                               ; preds = %12, %10
  %15 = phi ptr [ %11, %10 ], [ %13, %12 ]
  store ptr %15, ptr %6, align 8
  store i32 %1, ptr %0, align 8
  br label %Vec_IntGrow.exit

Vec_IntGrow.exit:                                 ; preds = %3, %14
  %16 = icmp sgt i32 %1, 0
  br i1 %16, label %.lr.ph, label %._crit_edge

.lr.ph:                                           ; preds = %Vec_IntGrow.exit
  %17 = getelementptr inbounds nuw i8, ptr %0, i64 8
  %wide.trip.count = zext nneg i32 %1 to i64
  br label %18

18:                                               ; preds = %.lr.ph, %18
  %indvars.iv = phi i64 [ 0, %.lr.ph ], [ %indvars.iv.next, %18 ]
  %19 = load ptr, ptr %17, align 8
  %20 = getelementptr inbounds nuw i32, ptr %19, i64 %indvars.iv
  store i32 %2, ptr %20, align 4
  %indvars.iv.next = add nuw nsw i64 %indvars.iv, 1
  %exitcond.not = icmp eq i64 %indvars.iv.next, %wide.trip.count
  br i1 %exitcond.not, label %._crit_edge, label %18, !llvm.loop !4

._crit_edge:                                      ; preds = %18, %Vec_IntGrow.exit
  %21 = getelementptr inbounds nuw i8, ptr %0, i64 4
  store i32 %1, ptr %21, align 4
  ret void
}